target datalayout = "e-m:e-p270:32:32-p271:32:32-p272:64:64-i64:64-i128:128-f80:128-n8:16:32:64-S128"
target triple = "x86_64-pc-linux-gnu"

%struct.stbte_tilemap = type { [200 x [200 x [8 x i16]]], [200 x [200 x [1 x float]]], i32, i32, i32, i32, i32, i32, i32, i32, i32, i32, i32, i32, [100 x ptr], i32, i32, ptr, i32, i32, i32, i8, i8, i8, i8, i32, i32, i32, [8 x %struct.stbte__layer], i32, i32, i32, i32, i32, i32, i32, i32, i16, [4096 x i8], ptr }
%struct.stbte__layer = type { ptr, i32, i32 }
%struct.stbte__tileinfo = type { i16, i16, ptr, i32 }

@.str.20 = private unnamed_addr constant [6 x i8] c"*ALL*\00", align 1

; Function Attrs: nounwind uwtable
define void @stbte__choose_category(ptr noundef %0, i32 noundef %1) #0 {
  %3 = alloca ptr, align 8
  %4 = alloca i32, align 4
  %5 = alloca i32, align 4
  %6 = alloca i32, align 4
  store ptr %0, ptr %3, align 8, !tbaa !25
  store i32 %1, ptr %4, align 4, !tbaa !13
  call void @llvm.lifetime.start.p0(i64 4, ptr %5) #8
  call void @llvm.lifetime.start.p0(i64 4, ptr %6) #8
  store i32 0, ptr %6, align 4, !tbaa !13
  %7 = load i32, ptr %4, align 4, !tbaa !13
  %8 = load ptr, ptr %3, align 8, !tbaa !25
  %9 = getelementptr inbounds nuw %struct.stbte_tilemap, ptr %8, i32 0, i32 11
  store i32 %7, ptr %9, align 4, !tbaa !40
  store i32 0, ptr %5, align 4, !tbaa !13
  br label %10

10:                                               ; preds = %35, %2
  %11 = load i32, ptr %5, align 4, !tbaa !13
  %12 = load ptr, ptr %3, align 8, !tbaa !25
  %13 = getelementptr inbounds nuw %struct.stbte_tilemap, ptr %12, i32 0, i32 18
  %14 = load i32, ptr %13, align 8, !tbaa !59
  %15 = icmp slt i32 %11, %14
  br i1 %15, label %16, label %38

16:                                               ; preds = %10
  %17 = load ptr, ptr %3, align 8, !tbaa !25
  %18 = getelementptr inbounds nuw %struct.stbte_tilemap, ptr %17, i32 0, i32 17
  %19 = load ptr, ptr %18, align 8, !tbaa !26
  %20 = load i32, ptr %5, align 4, !tbaa !13
  %21 = sext i32 %20 to i64
  %22 = getelementptr inbounds %struct.stbte__tileinfo, ptr %19, i64 %21
  %23 = getelementptr inbounds nuw %struct.stbte__tileinfo, ptr %22, i32 0, i32 1
  %24 = load i16, ptr %23, align 2, !tbaa !80
  %25 = zext i16 %24 to i32
  %26 = load i32, ptr %4, align 4, !tbaa !13
  %27 = icmp eq i32 %25, %26
  br i1 %27, label %31, label %28

28:                                               ; preds = %16
  %29 = load i32, ptr %4, align 4, !tbaa !13
  %30 = icmp eq i32 %29, -1
  br i1 %30, label %31, label %34

31:                                               ; preds = %28, %16
  %32 = load i32, ptr %6, align 4, !tbaa !13
  %33 = add nsw i32 %32, 1
  store i32 %33, ptr %6, align 4, !tbaa !13
  br label %34

34:                                               ; preds = %31, %28
  br label %35

35:                                               ; preds = %34
  %36 = load i32, ptr %5, align 4, !tbaa !13
  %37 = add nsw i32 %36, 1
  store i32 %37, ptr %5, align 4, !tbaa !13
  br label %10, !llvm.loop !81

38:                                               ; preds = %10
  %39 = load i32, ptr %6, align 4, !tbaa !13
  %40 = load ptr, ptr %3, align 8, !tbaa !25
  %41 = getelementptr inbounds nuw %struct.stbte_tilemap, ptr %40, i32 0, i32 25
  store i32 %39, ptr %41, align 8, !tbaa !82
  %42 = load ptr, ptr %3, align 8, !tbaa !25
  %43 = getelementptr inbounds nuw %struct.stbte_tilemap, ptr %42, i32 0, i32 26
  store i32 0, ptr %43, align 4, !tbaa !37
  call void @llvm.lifetime.end.p0(i64 4, ptr %6) #8
  call void @llvm.lifetime.end.p0(i64 4, ptr %5) #8
  ret void
}

; Function Attrs: nounwind uwtable
define void @stbte__categories(ptr noundef %0, i32 noundef %1, i32 noundef %2, i32 noundef %3, i32 noundef %4) #0 {
  %6 = alloca ptr, align 8
  %7 = alloca i32, align 4
  %8 = alloca i32, align 4
  %9 = alloca i32, align 4
  %10 = alloca i32, align 4
  %11 = alloca i32, align 4
  %12 = alloca i32, align 4
  %13 = alloca i32, align 4
  %14 = alloca i32, align 4
  %15 = alloca i32, align 4
  %16 = alloca i32, align 4
  store ptr %0, ptr %6, align 8, !tbaa !25
  store i32 %1, ptr %7, align 4, !tbaa !13
  store i32 %2, ptr %8, align 4, !tbaa !13
  store i32 %3, ptr %9, align 4, !tbaa !13
  store i32 %4, ptr %10, align 4, !tbaa !13
  call void @llvm.lifetime.start.p0(i64 4, ptr %11) #8
  store i32 11, ptr %11, align 4, !tbaa !13
  call void @llvm.lifetime.start.p0(i64 4, ptr %12) #8
  call void @llvm.lifetime.start.p0(i64 4, ptr %13) #8
  call void @llvm.lifetime.start.p0(i64 4, ptr %14) #8
  call void @llvm.lifetime.start.p0(i64 4, ptr %15) #8
  %17 = load i32, ptr %10, align 4, !tbaa !13
  %18 = load i32, ptr %11, align 4, !tbaa !13
  %19 = sdiv i32 %17, %18
  store i32 %19, ptr %15, align 4, !tbaa !13
  %20 = load i32, ptr %9, align 4, !tbaa !13
  %21 = sub nsw i32 %20, 4
  store i32 %21, ptr %9, align 4, !tbaa !13
  %22 = load i32, ptr %7, align 4, !tbaa !13
  %23 = add nsw i32 %22, 2
  store i32 %23, ptr %12, align 4, !tbaa !13
  %24 = load i32, ptr %8, align 4, !tbaa !13
  %25 = add nsw i32 %24, 4
  store i32 %25, ptr %13, align 4, !tbaa !13
  %26 = load ptr, ptr %6, align 8, !tbaa !25
  %27 = getelementptr inbounds nuw %struct.stbte_tilemap, ptr %26, i32 0, i32 16
  %28 = load i32, ptr %27, align 4, !tbaa !46
  %29 = icmp eq i32 %28, 0
  br i1 %29, label %30, label %47

30:                                               ; preds = %5
  %31 = load i32, ptr %12, align 4, !tbaa !13
  %32 = load i32, ptr %13, align 4, !tbaa !13
  %33 = load i32, ptr %9, align 4, !tbaa !13
  %34 = load ptr, ptr %6, align 8, !tbaa !25
  %35 = getelementptr inbounds nuw %struct.stbte_tilemap, ptr %34, i32 0, i32 11
  %36 = load i32, ptr %35, align 4, !tbaa !40
  %37 = icmp eq i32 %36, -1
  %38 = zext i1 %37 to i32
  %39 = call i32 @stbte__category_button(ptr noundef @.str.20, i32 noundef %31, i32 noundef %32, i32 noundef %33, i32 noundef 8388488, i32 noundef %38)
  %40 = icmp ne i32 %39, 0
  br i1 %40, label %41, label %43

41:                                               ; preds = %30
  %42 = load ptr, ptr %6, align 8, !tbaa !25
  call void @stbte__choose_category(ptr noundef %42, i32 noundef -1)
  br label %43

43:                                               ; preds = %41, %30
  %44 = load i32, ptr %11, align 4, !tbaa !13
  %45 = load i32, ptr %13, align 4, !tbaa !13
  %46 = add nsw i32 %45, %44
  store i32 %46, ptr %13, align 4, !tbaa !13
  br label %47

47:                                               ; preds = %43, %5
  store i32 0, ptr %14, align 4, !tbaa !13
  br label %48

48:                                               ; preds = %108, %47
  %49 = load i32, ptr %14, align 4, !tbaa !13
  %50 = load ptr, ptr %6, align 8, !tbaa !25
  %51 = getelementptr inbounds nuw %struct.stbte_tilemap, ptr %50, i32 0, i32 15
  %52 = load i32, ptr %51, align 8, !tbaa !84
  %53 = icmp slt i32 %49, %52
  br i1 %53, label %54, label %111

54:                                               ; preds = %48
  %55 = load i32, ptr %14, align 4, !tbaa !13
  %56 = add nsw i32 %55, 1
  %57 = load ptr, ptr %6, align 8, !tbaa !25
  %58 = getelementptr inbounds nuw %struct.stbte_tilemap, ptr %57, i32 0, i32 16
  %59 = load i32, ptr %58, align 4, !tbaa !46
  %60 = sub nsw i32 %56, %59
  %61 = icmp sge i32 %60, 0
  br i1 %61, label %62, label %107

62:                                               ; preds = %54
  %63 = load i32, ptr %14, align 4, !tbaa !13
  %64 = add nsw i32 %63, 1
  %65 = load ptr, ptr %6, align 8, !tbaa !25
  %66 = getelementptr inbounds nuw %struct.stbte_tilemap, ptr %65, i32 0, i32 16
  %67 = load i32, ptr %66, align 4, !tbaa !46
  %68 = sub nsw i32 %64, %67
  %69 = load i32, ptr %15, align 4, !tbaa !13
  %70 = icmp slt i32 %68, %69
  br i1 %70, label %71, label %107

71:                                               ; preds = %62
  %72 = load i32, ptr %13, align 4, !tbaa !13
  %73 = add nsw i32 %72, 10
  %74 = load i32, ptr %8, align 4, !tbaa !13
  %75 = load i32, ptr %10, align 4, !tbaa !13
  %76 = add nsw i32 %74, %75
  %77 = icmp sgt i32 %73, %76
  br i1 %77, label %78, label %79

78:                                               ; preds = %71
  store i32 1, ptr %16, align 4
  br label %128

79:                                               ; preds = %71
  %80 = load ptr, ptr %6, align 8, !tbaa !25
  %81 = getelementptr inbounds nuw %struct.stbte_tilemap, ptr %80, i32 0, i32 14
  %82 = load i32, ptr %14, align 4, !tbaa !13
  %83 = sext i32 %82 to i64
  %84 = getelementptr inbounds [100 x ptr], ptr %81, i64 0, i64 %83
  %85 = load ptr, ptr %84, align 8, !tbaa !72
  %86 = load i32, ptr %12, align 4, !tbaa !13
  %87 = load i32, ptr %13, align 4, !tbaa !13
  %88 = load i32, ptr %9, align 4, !tbaa !13
  %89 = load i32, ptr %14, align 4, !tbaa !13
  %90 = shl i32 %89, 7
  %91 = add nsw i32 8, %90
  %92 = load ptr, ptr %6, align 8, !tbaa !25
  %93 = getelementptr inbounds nuw %struct.stbte_tilemap, ptr %92, i32 0, i32 11
  %94 = load i32, ptr %93, align 4, !tbaa !40
  %95 = load i32, ptr %14, align 4, !tbaa !13
  %96 = icmp eq i32 %94, %95
  %97 = zext i1 %96 to i32
  %98 = call i32 @stbte__category_button(ptr noundef %85, i32 noundef %86, i32 noundef %87, i32 noundef %88, i32 noundef %91, i32 noundef %97)
  %99 = icmp ne i32 %98, 0
  br i1 %99, label %100, label %103

100:                                              ; preds = %79
  %101 = load ptr, ptr %6, align 8, !tbaa !25
  %102 = load i32, ptr %14, align 4, !tbaa !13
  call void @stbte__choose_category(ptr noundef %101, i32 noundef %102)
  br label %103

103:                                              ; preds = %100, %79
  %104 = load i32, ptr %11, align 4, !tbaa !13
  %105 = load i32, ptr %13, align 4, !tbaa !13
  %106 = add nsw i32 %105, %104
  store i32 %106, ptr %13, align 4, !tbaa !13
  br label %107

107:                                              ; preds = %103, %62, %54
  br label %108

108:                                              ; preds = %107
  %109 = load i32, ptr %14, align 4, !tbaa !13
  %110 = add nsw i32 %109, 1
  store i32 %110, ptr %14, align 4, !tbaa !13
  br label %48, !llvm.loop !215

111:                                              ; preds = %48
  %112 = load i32, ptr %7, align 4, !tbaa !13
  %113 = load i32, ptr %9, align 4, !tbaa !13
  %114 = add nsw i32 %112, %113
  %115 = load i32, ptr %8, align 4, !tbaa !13
  %116 = add nsw i32 %115, 4
  %117 = load i32, ptr %8, align 4, !tbaa !13
  %118 = load i32, ptr %10, align 4, !tbaa !13
  %119 = add nsw i32 %117, %118
  %120 = sub nsw i32 %119, 4
  %121 = load ptr, ptr %6, align 8, !tbaa !25
  %122 = getelementptr inbounds nuw %struct.stbte_tilemap, ptr %121, i32 0, i32 16
  %123 = load ptr, ptr %6, align 8, !tbaa !25
  %124 = getelementptr inbounds nuw %struct.stbte_tilemap, ptr %123, i32 0, i32 15
  %125 = load i32, ptr %124, align 8, !tbaa !84
  %126 = add nsw i32 %125, 1
  %127 = load i32, ptr %15, align 4, !tbaa !13
  call void @stbte__scrollbar(i32 noundef %114, i32 noundef %116, i32 noundef %120, ptr noundef %122, i32 noundef 0, i32 noundef %126, i32 noundef %127, i32 noundef 1040)
  store i32 0, ptr %16, align 4
  br label %128

128:                                              ; preds = %111, %78
  call void @llvm.lifetime.end.p0(i64 4, ptr %15) #8
  call void @llvm.lifetime.end.p0(i64 4, ptr %14) #8
  call void @llvm.lifetime.end.p0(i64 4, ptr %13) #8
  call void @llvm.lifetime.end.p0(i64 4, ptr %12) #8
  call void @llvm.lifetime.end.p0(i64 4, ptr %11) #8
  %129 = load i32, ptr %16, align 4
  switch i32 %129, label %131 [
    i32 0, label %130
    i32 1, label %130
  ]

130:                                              ; preds = %128, %128
  ret void

131:                                              ; preds = %128
  unreachable
}