; Function Attrs: nounwind uwtable
define void @stbte__categories(ptr noundef captures(none) %0, i32 noundef %1, i32 noundef %2, i32 noundef %3, i32 noundef %4) local_unnamed_addr #15 {
  %6 = sdiv i32 %4, 11
  %7 = add nsw i32 %3, -4
  %8 = add nsw i32 %1, 2
  %9 = add nsw i32 %2, 4
  %10 = getelementptr inbounds nuw i8, ptr %0, i64 800852
  %11 = load i32, ptr %10, align 4, !tbaa !44
  %12 = icmp eq i32 %11, 0
  br i1 %12, label %13, label %25

13:                                               ; preds = %5
  %14 = getelementptr inbounds nuw i8, ptr %0, i64 800036
  %15 = load i32, ptr %14, align 4, !tbaa !38
  %16 = icmp eq i32 %15, -1
  %17 = zext i1 %16 to i32
  %18 = tail call i32 @stbte__category_button(ptr noundef nonnull @.str.20, i32 noundef %8, i32 noundef %9, i32 noundef %7, i32 noundef 8388488, i32 noundef %17)
  %.not = icmp eq i32 %18, 0
  br i1 %.not, label %23, label %stbte__choose_category.exit

stbte__choose_category.exit:                      ; preds = %13
  store i32 -1, ptr %14, align 4, !tbaa !38
  %19 = getelementptr inbounds nuw i8, ptr %0, i64 800864
  %20 = load i32, ptr %19, align 8, !tbaa !51
  %spec.select = tail call i32 @llvm.smax.i32(i32 %20, i32 0)
  %21 = getelementptr inbounds nuw i8, ptr %0, i64 800880
  store i32 %spec.select, ptr %21, align 8, !tbaa !70
  %22 = getelementptr inbounds nuw i8, ptr %0, i64 800884
  store i32 0, ptr %22, align 4, !tbaa !35
  br label %23

23:                                               ; preds = %stbte__choose_category.exit, %13
  %24 = add nsw i32 %2, 15
  br label %25

25:                                               ; preds = %23, %5
  %.043 = phi i32 [ %24, %23 ], [ %9, %5 ]
  %26 = getelementptr inbounds nuw i8, ptr %0, i64 800848
  %27 = load i32, ptr %26, align 8, !tbaa !72
  %28 = icmp sgt i32 %27, 0
  %29 = add nsw i32 %4, %2
  br i1 %28, label %.lr.ph, label %._crit_edge

.lr.ph:                                           ; preds = %25
  %30 = getelementptr inbounds nuw i8, ptr %0, i64 800048
  %31 = getelementptr inbounds nuw i8, ptr %0, i64 800036
  %32 = getelementptr inbounds nuw i8, ptr %0, i64 800864
  %33 = getelementptr inbounds nuw i8, ptr %0, i64 800856
  %34 = getelementptr inbounds nuw i8, ptr %0, i64 800880
  %35 = getelementptr inbounds nuw i8, ptr %0, i64 800884
  br label %36

36:                                               ; preds = %.lr.ph, %69
  %37 = phi i32 [ %27, %.lr.ph ], [ %70, %69 ]
  %indvars.iv = phi i64 [ 0, %.lr.ph ], [ %indvars.iv.next, %69 ]
  %.157 = phi i32 [ %.043, %.lr.ph ], [ %.2, %69 ]
  %indvars.iv.next = add nuw nsw i64 %indvars.iv, 1
  %38 = load i32, ptr %10, align 4, !tbaa !44
  %39 = trunc nuw nsw i64 %indvars.iv.next to i32
  %40 = sub nsw i32 %39, %38
  %41 = icmp sgt i32 %40, -1
  %42 = icmp slt i32 %40, %6
  %or.cond = and i1 %41, %42
  br i1 %or.cond, label %43, label %69

43:                                               ; preds = %36
  %44 = add nsw i32 %.157, 10
  %45 = icmp sgt i32 %44, %29
  br i1 %45, label %.loopexit, label %46

46:                                               ; preds = %43
  %47 = getelementptr inbounds nuw [100 x ptr], ptr %30, i64 0, i64 %indvars.iv
  %48 = load ptr, ptr %47, align 8, !tbaa !73
  %49 = trunc nuw nsw i64 %indvars.iv to i32
  %50 = shl i32 %49, 7
  %51 = or disjoint i32 %50, 8
  %52 = load i32, ptr %31, align 4, !tbaa !38
  %53 = zext i32 %52 to i64
  %54 = icmp eq i64 %indvars.iv, %53
  %55 = zext i1 %54 to i32
  %56 = tail call i32 @stbte__category_button(ptr noundef %48, i32 noundef %8, i32 noundef %.157, i32 noundef %7, i32 noundef %51, i32 noundef %55)
  %.not46 = icmp eq i32 %56, 0
  br i1 %.not46, label %67, label %57

57:                                               ; preds = %46
  store i32 %49, ptr %31, align 4, !tbaa !38
  %58 = load i32, ptr %32, align 8, !tbaa !51
  %59 = icmp sgt i32 %58, 0
  br i1 %59, label %.lr.ph.i48, label %stbte__choose_category.exit55

.lr.ph.i48:                                       ; preds = %57
  %60 = load ptr, ptr %33, align 8, !tbaa !24
  %wide.trip.count.i49 = zext nneg i32 %58 to i64
  br label %61

61:                                               ; preds = %61, %.lr.ph.i48
  %indvars.iv.i50 = phi i64 [ 0, %.lr.ph.i48 ], [ %indvars.iv.next.i53, %61 ]
  %.015.i51 = phi i32 [ 0, %.lr.ph.i48 ], [ %spec.select.i52, %61 ]
  %62 = getelementptr inbounds nuw %struct.stbte__tileinfo, ptr %60, i64 %indvars.iv.i50, i32 1
  %63 = load i16, ptr %62, align 2, !tbaa !68
  %64 = zext i16 %63 to i64
  %65 = icmp eq i64 %indvars.iv, %64
  %66 = zext i1 %65 to i32
  %spec.select.i52 = add nuw nsw i32 %.015.i51, %66
  %indvars.iv.next.i53 = add nuw nsw i64 %indvars.iv.i50, 1
  %exitcond.not.i54 = icmp eq i64 %indvars.iv.next.i53, %wide.trip.count.i49
  br i1 %exitcond.not.i54, label %stbte__choose_category.exit55, label %61, !llvm.loop !69

stbte__choose_category.exit55:                    ; preds = %61, %57
  %.0.lcssa.i47 = phi i32 [ 0, %57 ], [ %spec.select.i52, %61 ]
  store i32 %.0.lcssa.i47, ptr %34, align 8, !tbaa !70
  store i32 0, ptr %35, align 4, !tbaa !35
  br label %67

67:                                               ; preds = %stbte__choose_category.exit55, %46
  %68 = add nsw i32 %.157, 11
  %.pre = load i32, ptr %26, align 8, !tbaa !72
  br label %69

69:                                               ; preds = %36, %67
  %70 = phi i32 [ %.pre, %67 ], [ %37, %36 ]
  %.2 = phi i32 [ %68, %67 ], [ %.157, %36 ]
  %71 = sext i32 %70 to i64
  %72 = icmp slt i64 %indvars.iv.next, %71
  br i1 %72, label %36, label %._crit_edge, !llvm.loop !195

._crit_edge:                                      ; preds = %69, %25
  %.lcssa = phi i32 [ %27, %25 ], [ %70, %69 ]
  %73 = add nsw i32 %7, %1
  %74 = add nsw i32 %29, -4
  %75 = add nsw i32 %.lcssa, 1
  tail call void @stbte__scrollbar(i32 noundef %73, i32 noundef %9, i32 noundef %74, ptr noundef nonnull %10, i32 noundef 0, i32 noundef %75, i32 noundef %6, i32 noundef 1040)
  br label %.loopexit

.loopexit:                                        ; preds = %43, %._crit_edge
  ret void
}